ccopy_reg
_reconstructor
p0
(cmagpy.opt.analysismonitor
Analysismonitor
p1
c__builtin__
dict
p2
(dp3
S'data_threshold_l2_GP20S3EW_111201_0001'
p4
(lp5
F3.0
aS'>'
p6
aF2.3
asS'data_threshold_t1_GP20S3EW_111201_0001'
p7
(lp8
F39.0
ag6
aI30
asS'upload_homepage_magnetism_graph'
p9
(lp10
S'success'
p11
aS'='
p12
aS'success'
p13
asS'data_threshold_l1_GP20S3EW_111201_0001'
p14
(lp15
F2.8
ag6
aF2.3
asS'data_threshold_t3_GP20S3EW_111201_0001'
p16
(lp17
F39.0
ag6
aI30
asS'data_threshold_f1_GP20S3NS_012201_0001'
p18
(lp19
Fnan
ag6
aI30000000
asVdata_actuality_time_BLV_LEMI025_22_0003_GSM90_14245_0002_A2
p20
(lp21
cdatetime
datetime
p22
(S'\x07\xe4\t\t\x07\x17\x00\x00\x00\x00'
p23
cmatplotlib.dates
_UTC
p24
(tRp25
tp26
Rp27
aS'>'
p28
ag22
(S'\x07\xe3\x02\x14\n+\x16\x0f\x1c\xc7'
p29
tp30
Rp31
asS'script_periodic_magactivity_graph'
p32
(lp33
S'success'
p34
aS'='
p35
aS'success'
p36
asS'data_threshold_l3_GP20S3EW_111201_0001'
p37
(lp38
F3.0
ag6
aF2.3
asS'data_threshold_f3_GP20S3EW_111201_0001'
p39
(lp40
F48696854.864
aS'>'
p41
aI30000000
asS'upload_homepage_currentmeteo_data'
p42
(lp43
S'success'
p44
aS'='
p45
ag44
asVdata_actuality_time_BLV_LEMI036_1_0002_GP20S3NSS2_012201_0001_A2
p46
(lp47
g22
(S'\x07\xe4\x08\x1a\x07"\x00\x00\x00\x00'
p48
g24
(tRp49
tp50
Rp51
aS'>'
p52
ag22
(S'\x07\xe3\x02\x15\x0e\x14\x10\x0bIj'
p53
tp54
Rp55
asS'data_threshold_t3_GP20S3NS_012201_0001'
p56
(lp57
F41.0
ag6
aI30
asS'upload_homepage_meteo1_graph'
p58
(lp59
S'success'
p60
aS'='
p61
ag60
asVdata_threshold_amount_BLV_LEMI025_22_0003_GP20S3NSS2_012201_0001_A2
p62
(lp63
I27
aS'>'
p64
aI10
asS'script_title_mag_graph'
p65
(lp66
S'success'
p67
aS'='
p68
aS'success'
p69
asS'data_threshold_neck2_GWRSGC025A_25_0002'
p70
(lp71
F78.29063943972814
aS'<'
p72
aI200
asS'data_threshold_t2_GP20S3NS_012201_0001'
p73
(lp74
F39.0
ag6
aI30
asS'upload_GIN_minutedata'
p75
(lp76
S'success'
p77
aS'='
p78
ag77
asS'data_threshold_t3_GP20S3V_911005_0001'
p79
(lp80
F40.0
ag6
aI30
asVdata_actuality_time_BLV_LEMI025_22_0003_GP20S3NSS2_012201_0001_A2
p81
(lp82
g22
(S'\x07\xe3\n\x1e\x08)\x00\x00\x00\x00'
p83
g24
(tRp84
tp85
Rp86
ag64
ag22
(S'\x07\xe3\x02\x14\x12\x00\x11\x0cW\xe2'
p87
tp88
Rp89
asS'script_periodic_gravity_graph'
p90
(lp91
S'success'
p92
aS'='
p93
aS'success'
p94
asS'data_actuality_time_BLV_LEMI036_1_0002_GSM90_6107631_0001_A2'
p95
(lp96
g22
(S'\x07\xe3\x01\x03\n\x10\x00\x00\x00\x00'
p97
g24
(tRp98
tp99
Rp100
aS'>'
p101
ag22
(S'\x07\xe2\x04\x03\x0e(\x06\x056\x0c'
p102
tp103
Rp104
asS'data_threshold_l2_GP20S3V_911005_0001'
p105
(lp106
F2.9
ag6
aF2.3
asS'data_threshold_l1_GP20S3NS_012201_0001'
p107
(lp108
F3.0
ag6
aF2.3
asS'script_title_weather_graph'
p109
(lp110
S'success'
p111
aS'='
p112
aS'success'
p113
asS'data_threshold_base_BLV_LEMI036_1_0002_GSM90_14245_0002_A2'
p114
(lp115
cnumpy.core.multiarray
scalar
p116
(cnumpy
dtype
p117
(S'f8'
p118
I0
I1
tp119
Rp120
(I3
S'<'
p121
NNNI-1
I-1
I0
tp122
bS'\xc0)\xdc{\xbf\x06\xd2?'
p123
tp124
Rp125
aS'<'
p126
aI5
asS'data_threshold_f3_GP20S3V_911005_0001'
p127
(lp128
F48650326.214
ag6
aI30000000
asVdata_threshold_amount_BLV_LEMI025_22_0003_GSM90_14245_0002_A2
p129
(lp130
I30
ag28
aI10
asS'script_solarwind_to_gic'
p131
(lp132
S'success'
p133
aS'='
p134
ag133
asVdata_threshold_base_BLV_LEMI025_22_0003_GSM90_14245_0002_A2
p135
(lp136
g116
(g120
S'\x92\x08+~\xbc\x94\xe3?'
p137
tp138
Rp139
aS'<'
p140
aI5
asS'upload_homepage_current_data'
p141
(lp142
S'success'
p143
aS'='
p144
ag143
asVdata_threshold_base_BLV_LEMI025_22_0003_GP20S3NSS2_012201_0001_A2
p145
(lp146
g116
(g120
S'6\xd3\xb5\x1a\x8a\x8d\xe3?'
p147
tp148
Rp149
aS'<'
p150
aI5
asS'data_threshold_amount_BLV_LEMI036_1_0002_GSM90_6107631_0001_A2'
p151
(lp152
I12
ag101
aI10
asVdata_threshold_base_BLV_LEMI025_22_0003_GSM90_6107631_0001_A2
p153
(lp154
g116
(g120
S'Y\x10\n\xdd=a\xe3?'
p155
tp156
Rp157
aS'<'
p158
aI5
asS'data_threshold_t1_GP20S3V_911005_0001'
p159
(lp160
F40.0
ag6
aI30
asS'data_threshold_base_BLV_LEMI036_1_0002_GSM90_6107631_0001_A2'
p161
(lp162
g116
(g120
S'\xe8J\x11\xa8\xb3i\xe4?'
p163
tp164
Rp165
aS'<'
p166
aI5
asS'data_actuality_time_BLV_LEMI036_1_0002_GSM90_14245_0002_A2'
p167
(lp168
g22
(S'\x07\xe4\x08\x1a\x07"\x00\x00\x00\x00'
p169
g24
(tRp170
tp171
Rp172
aS'>'
p173
ag22
(S'\x07\xe1\x0c\x1a\x0e/\x17\x0c\x8c\x10'
p174
tp175
Rp176
asS'upload_homepage_supergradEWplot'
p177
(lp178
S'success'
p179
aS'='
p180
aS'success'
p181
asS'script_title_gravity_graph'
p182
(lp183
S'failure'
p184
aS'='
p185
aS'success'
p186
asVdata_threshold_base_BLV_LEMI036_1_0002_GP20S3NSS2_012201_0001_A2
p187
(lp188
g116
(g120
S'\xcc\xfe\x8b4\xb1\x8d\xe2?'
p189
tp190
Rp191
aS'<'
p192
aI5
asVdata_threshold_amount_BLV_LEMI025_22_0003_GSM90_6107631_0001_A2
p193
(lp194
I31
aS'>'
p195
aI10
asS'data_threshold_f3_GP20S3NS_012201_0001'
p196
(lp197
Fnan
ag6
aI30000000
asVdata_actuality_time_BLV_LEMI025_22_0003_GSM90_6107631_0001_A2
p198
(lp199
g22
(S'\x07\xe3\x02\x1c\x0f \x1e\x00\x00\x00'
p200
g24
(tRp201
tp202
Rp203
ag195
ag22
(S'\x07\xe3\x02\x14\x00\x14\x1c\r\xbc\x9c'
p204
tp205
Rp206
asS'data_threshold_t2_GP20S3EW_111201_0001'
p207
(lp208
F40.0
ag6
aI30
asS'data_threshold_t2_GP20S3V_911005_0001'
p209
(lp210
F40.0
ag6
aI30
asS'data_threshold_l1_GP20S3V_911005_0001'
p211
(lp212
F3.0
ag6
aF2.3
asS'data_threshold_amount_BLV_LEMI036_1_0002_GSM90_14245_0002_A2'
p213
(lp214
I29
ag173
aI10
asS'script_periodic_tilt_graph'
p215
(lp216
S'failure'
p217
aS'='
p218
aS'success'
p219
asS'data_threshold_l2_GP20S3NS_012201_0001'
p220
(lp221
F2.9
ag6
aF2.3
asS'upload_homepage_meteo0_graph'
p222
(lp223
g60
ag61
ag60
asS'data_threshold_f2_GP20S3V_911005_0001'
p224
(lp225
F48643119.154
ag6
aI30000000
asS'data_threshold_l3_GP20S3NS_012201_0001'
p226
(lp227
F3.0
ag6
aF2.3
asS'data_threshold_f2_GP20S3NS_012201_0001'
p228
(lp229
Fnan
ag6
aI30000000
asS'data_threshold_t1_GP20S3NS_012201_0001'
p230
(lp231
F39.0
ag6
aI30
asVdata_threshold_amount_BLV_LEMI036_1_0002_GP20S3NSS2_012201_0001_A2
p232
(lp233
I27
ag52
aI10
asS'data_threshold_f1_GP20S3V_911005_0001'
p234
(lp235
F48643781.414
ag6
aI30000000
asS'script_periodic_gamma_graph'
p236
(lp237
S'success'
p238
aS'='
p239
aS'success'
p240
asS'data_threshold_l3_GP20S3V_911005_0001'
p241
(lp242
F2.9
ag6
aF2.3
asS'data_threshold_f1_GP20S3EW_111201_0001'
p243
(lp244
F48690404.584
ag41
aI30000000
asS'script_periodic_spaceweather_graph'
p245
(lp246
S'success'
p247
aS'='
p248
aS'success'
p249
asS'data_threshold_f2_GP20S3EW_111201_0001'
p250
(lp251
F48692852.219
ag41
aI30000000
asS'script_periodic_supergrad_graph'
p252
(lp253
S'success'
p254
ag180
ag181
asVdata_threshold_f_Example
p255
(lp256
I30000
aV>
p257
aI20000
asS'data_threshold_neck1_GWRSGC025A_25_0002'
p258
(lp259
F13.069014612351502
ag72
aI20
asS'upload_GIN_seconddata'
p260
(lp261
g77
ag78
ag77
astp262
Rp263
(dp264
S'dictfile'
p265
V/home/cobs/ANALYSIS/Logs/.magpyanalysismonitor.pkl
p266
sS'logfile'
p267
S'/home/cobs/ANALYSIS/Logs/AnalysisMonitor_cobs.log'
p268
sb.