ccopy_reg
_reconstructor
p0
(cmagpy.opt.analysismonitor
Analysismonitor
p1
c__builtin__
dict
p2
(dp3
S'data_threshold_l2_GP20S3EW_111201_0001'
p4
(lp5
F3.0
aS'>'
p6
aF2.3
asS'data_threshold_t1_GP20S3EW_111201_0001'
p7
(lp8
F39.0
ag6
aI30
asS'upload_homepage_magnetism_graph'
p9
(lp10
S'success'
p11
aS'='
p12
aS'success'
p13
asS'data_threshold_l1_GP20S3EW_111201_0001'
p14
(lp15
F2.8
ag6
aF2.3
asS'data_threshold_t3_GP20S3EW_111201_0001'
p16
(lp17
F39.0
ag6
aI30
asS'data_threshold_f1_GP20S3NS_012201_0001'
p18
(lp19
Fnan
ag6
aI30000000
asS'script_title_gravity_graph'
p20
(lp21
S'failure'
p22
aS'='
p23
aS'success'
p24
asS'script_periodic_magactivity_graph'
p25
(lp26
S'success'
p27
aS'='
p28
aS'success'
p29
asS'data_threshold_l3_GP20S3EW_111201_0001'
p30
(lp31
F3.0
ag6
aF2.3
asS'data_threshold_f3_GP20S3EW_111201_0001'
p32
(lp33
F48696854.864
aS'>'
p34
aI30000000
asS'upload_homepage_currentmeteo_data'
p35
(lp36
S'success'
p37
aS'='
p38
ag37
asVdata_actuality_time_BLV_LEMI036_1_0002_GP20S3NSS2_012201_0001_A2
p39
(lp40
cdatetime
datetime
p41
(S'\x07\xe4\x04\x0f\x06)\x00\x00\x00\x00'
p42
cmatplotlib.dates
_UTC
p43
(tRp44
tp45
Rp46
aS'>'
p47
ag41
(S'\x07\xe3\x02\x15\x0e\x14\x10\x0bIj'
p48
tp49
Rp50
asS'data_threshold_t3_GP20S3NS_012201_0001'
p51
(lp52
F41.0
ag6
aI30
asS'upload_homepage_meteo1_graph'
p53
(lp54
S'success'
p55
aS'='
p56
ag55
asVdata_threshold_amount_BLV_LEMI025_22_0003_GP20S3NSS2_012201_0001_A2
p57
(lp58
I27
aS'>'
p59
aI10
asS'script_title_mag_graph'
p60
(lp61
S'success'
p62
aS'='
p63
aS'success'
p64
asS'data_threshold_neck2_GWRSGC025A_25_0002'
p65
(lp66
F78.29063943972814
aS'<'
p67
aI200
asS'data_threshold_t2_GP20S3NS_012201_0001'
p68
(lp69
F39.0
ag6
aI30
asS'upload_GIN_minutedata'
p70
(lp71
S'success'
p72
aS'='
p73
ag72
asS'data_threshold_t3_GP20S3V_911005_0001'
p74
(lp75
F40.0
ag6
aI30
asS'script_periodic_gravity_graph'
p76
(lp77
S'success'
p78
aS'='
p79
aS'success'
p80
asS'data_actuality_time_BLV_LEMI036_1_0002_GSM90_6107631_0001_A2'
p81
(lp82
g41
(S'\x07\xe3\x01\x03\n\x10\x00\x00\x00\x00'
p83
g43
(tRp84
tp85
Rp86
aS'>'
p87
ag41
(S'\x07\xe2\x04\x03\x0e(\x06\x056\x0c'
p88
tp89
Rp90
asS'data_threshold_l2_GP20S3V_911005_0001'
p91
(lp92
F2.9
ag6
aF2.3
asS'data_threshold_l1_GP20S3NS_012201_0001'
p93
(lp94
F3.0
ag6
aF2.3
asS'script_title_weather_graph'
p95
(lp96
S'success'
p97
aS'='
p98
aS'success'
p99
asS'data_threshold_base_BLV_LEMI036_1_0002_GSM90_14245_0002_A2'
p100
(lp101
cnumpy.core.multiarray
scalar
p102
(cnumpy
dtype
p103
(S'f8'
p104
I0
I1
tp105
Rp106
(I3
S'<'
p107
NNNI-1
I-1
I0
tp108
bS'\xc0)\xdc{\xbf\x06\xd2?'
p109
tp110
Rp111
aS'<'
p112
aI5
asS'data_threshold_f3_GP20S3V_911005_0001'
p113
(lp114
F48650326.214
ag6
aI30000000
asVdata_threshold_amount_BLV_LEMI025_22_0003_GSM90_14245_0002_A2
p115
(lp116
I30
aS'>'
p117
aI10
asS'script_solarwind_to_gic'
p118
(lp119
S'success'
p120
aS'='
p121
ag120
asVdata_threshold_base_BLV_LEMI025_22_0003_GSM90_14245_0002_A2
p122
(lp123
g102
(g106
S'\x92\x08+~\xbc\x94\xe3?'
p124
tp125
Rp126
aS'<'
p127
aI5
asS'upload_homepage_current_data'
p128
(lp129
S'success'
p130
aS'='
p131
ag130
asVdata_threshold_base_BLV_LEMI025_22_0003_GP20S3NSS2_012201_0001_A2
p132
(lp133
g102
(g106
S'6\xd3\xb5\x1a\x8a\x8d\xe3?'
p134
tp135
Rp136
aS'<'
p137
aI5
asS'data_threshold_amount_BLV_LEMI036_1_0002_GSM90_6107631_0001_A2'
p138
(lp139
I12
ag87
aI10
asVdata_threshold_base_BLV_LEMI025_22_0003_GSM90_6107631_0001_A2
p140
(lp141
g102
(g106
S'Y\x10\n\xdd=a\xe3?'
p142
tp143
Rp144
aS'<'
p145
aI5
asS'data_threshold_t1_GP20S3V_911005_0001'
p146
(lp147
F40.0
ag6
aI30
asS'data_threshold_base_BLV_LEMI036_1_0002_GSM90_6107631_0001_A2'
p148
(lp149
g102
(g106
S'\xe8J\x11\xa8\xb3i\xe4?'
p150
tp151
Rp152
aS'<'
p153
aI5
asS'data_actuality_time_BLV_LEMI036_1_0002_GSM90_14245_0002_A2'
p154
(lp155
g41
(S'\x07\xe4\x03\x06\x07#\x00\x00\x00\x00'
p156
g43
(tRp157
tp158
Rp159
aS'>'
p160
ag41
(S'\x07\xe1\x0c\x1a\x0e/\x17\x0c\x8c\x10'
p161
tp162
Rp163
asS'upload_homepage_supergradEWplot'
p164
(lp165
S'success'
p166
aS'='
p167
aS'success'
p168
asVdata_actuality_time_BLV_LEMI025_22_0003_GSM90_14245_0002_A2
p169
(lp170
g41
(S'\x07\xe3\x02\x1c\x0f \x1e\x00\x00\x00'
p171
g43
(tRp172
tp173
Rp174
ag117
ag41
(S'\x07\xe3\x02\x14\n+\x16\x0f\x1c\xc7'
p175
tp176
Rp177
asS'data_threshold_f2_GP20S3V_911005_0001'
p178
(lp179
F48643119.154
ag6
aI30000000
asVdata_threshold_base_BLV_LEMI036_1_0002_GP20S3NSS2_012201_0001_A2
p180
(lp181
g102
(g106
S'\xcc\xfe\x8b4\xb1\x8d\xe2?'
p182
tp183
Rp184
aS'<'
p185
aI5
asVdata_threshold_amount_BLV_LEMI025_22_0003_GSM90_6107631_0001_A2
p186
(lp187
I31
aS'>'
p188
aI10
asS'data_threshold_f3_GP20S3NS_012201_0001'
p189
(lp190
Fnan
ag6
aI30000000
asVdata_actuality_time_BLV_LEMI025_22_0003_GSM90_6107631_0001_A2
p191
(lp192
g41
(S'\x07\xe3\x02\x1c\x0f \x1e\x00\x00\x00'
p193
g43
(tRp194
tp195
Rp196
ag188
ag41
(S'\x07\xe3\x02\x14\x00\x14\x1c\r\xbc\x9c'
p197
tp198
Rp199
asS'data_threshold_t2_GP20S3EW_111201_0001'
p200
(lp201
F40.0
ag6
aI30
asS'data_threshold_t2_GP20S3V_911005_0001'
p202
(lp203
F40.0
ag6
aI30
asS'data_threshold_l1_GP20S3V_911005_0001'
p204
(lp205
F3.0
ag6
aF2.3
asS'data_threshold_amount_BLV_LEMI036_1_0002_GSM90_14245_0002_A2'
p206
(lp207
I29
ag160
aI10
asS'script_periodic_tilt_graph'
p208
(lp209
S'failure'
p210
aS'='
p211
aS'success'
p212
asS'data_threshold_l2_GP20S3NS_012201_0001'
p213
(lp214
F2.9
ag6
aF2.3
asS'upload_homepage_meteo0_graph'
p215
(lp216
g55
ag56
ag55
asVdata_actuality_time_BLV_LEMI025_22_0003_GP20S3NSS2_012201_0001_A2
p217
(lp218
g41
(S'\x07\xe3\n\x1e\x08)\x00\x00\x00\x00'
p219
g43
(tRp220
tp221
Rp222
ag59
ag41
(S'\x07\xe3\x02\x14\x12\x00\x11\x0cW\xe2'
p223
tp224
Rp225
asS'data_threshold_l3_GP20S3NS_012201_0001'
p226
(lp227
F3.0
ag6
aF2.3
asS'data_threshold_f2_GP20S3NS_012201_0001'
p228
(lp229
Fnan
ag6
aI30000000
asS'data_threshold_t1_GP20S3NS_012201_0001'
p230
(lp231
F39.0
ag6
aI30
asVdata_threshold_amount_BLV_LEMI036_1_0002_GP20S3NSS2_012201_0001_A2
p232
(lp233
I27
ag47
aI10
asS'data_threshold_f1_GP20S3V_911005_0001'
p234
(lp235
F48643781.414
ag6
aI30000000
asS'script_periodic_gamma_graph'
p236
(lp237
S'success'
p238
aS'='
p239
aS'success'
p240
asS'data_threshold_l3_GP20S3V_911005_0001'
p241
(lp242
F2.9
ag6
aF2.3
asS'data_threshold_f1_GP20S3EW_111201_0001'
p243
(lp244
F48690404.584
ag34
aI30000000
asS'script_periodic_spaceweather_graph'
p245
(lp246
S'success'
p247
aS'='
p248
aS'success'
p249
asS'data_threshold_f2_GP20S3EW_111201_0001'
p250
(lp251
F48692852.219
ag34
aI30000000
asS'script_periodic_supergrad_graph'
p252
(lp253
S'success'
p254
ag167
ag168
asVdata_threshold_f_Example
p255
(lp256
I30000
aV>
p257
aI20000
asS'data_threshold_neck1_GWRSGC025A_25_0002'
p258
(lp259
F13.069014612351502
ag67
aI20
asS'upload_GIN_seconddata'
p260
(lp261
g72
ag73
ag72
astp262
Rp263
(dp264
S'dictfile'
p265
V/home/cobs/ANALYSIS/Logs/.magpyanalysismonitor.pkl
p266
sS'logfile'
p267
S'/home/cobs/ANALYSIS/Logs/AnalysisMonitor_cobs.log'
p268
sb.